ccopy_reg
_reconstructor
p1
(ctensorflow.contrib.learn.python.learn.preprocessing.text
VocabularyProcessor
p2
c__builtin__
object
p3
NtRp4
(dp5
S'vocabulary_'
p6
g1
(ctensorflow.contrib.learn.python.learn.preprocessing.categorical_vocabulary
CategoricalVocabulary
p7
g3
NtRp8
(dp9
S'_freeze'
p10
I01
sS'_unknown_token'
p11
S'<UNK>'
p12
sS'_support_reverse'
p13
I01
sS'_freq'
p14
ccollections
defaultdict
p15
(c__builtin__
int
p16
tRp17
S'shop'
p18
I1
sS'\xe8\xba'
p19
I8
sS'all'
p20
I2
sS'45'
p21
I1
sS'\xe8\xbe'
p22
I34
sS'\xe8\xbd'
p23
I35
sS'\xe4\xbc\xaa\xe6'
p24
I1
sS'over'
p25
I1
sS'\xb3\xe7\xb2'
p26
I1
sS'218'
p27
I2
sS'\xe8\xb5'
p28
I34
sS'\xbd\xe5'
p29
I27
sS'\xbd\xe7'
p30
I8
sS'\xbd\xe6'
p31
I5
sS'\xb9\xe5\xbc'
p32
I1
sS'\xb9\xe5\xbe'
p33
I2
sS'\xbd\xe9'
p34
I2
sS'\xbd\xe8'
p35
I3
sS'5C'
p36
I1
sS'\xe5\xb9\xb3\xe7'
p37
I1
sS'20'
p38
I4
sS'21'
p39
I1
sS'28'
p40
I2
sS'\xe6\xb3\xb3\xe6'
p41
I2
sS'\xe7\xaa'
p42
I10
sS'0'
I3
sS'\xb3'
I55
sS'\xef\xbc'
p43
I819
sS'4'
I12
sS'2400'
p44
I1
sS'400'
p45
I1
sS'\xb5\xe5'
p46
I4
sS'280'
p47
I2
sS'\xb5\xe7'
p48
I1
sS'\xb5\xe6'
p49
I2
sS'HKD'
p50
I1
sS'\xe8\xba\xba'
p51
I2
sS'\xbd\xe4\xba'
p52
I1
sS'\xe7\xb3'
p53
I20
sS'D'
I1
sS'\xbd\xe4\xbc'
p54
I1
sS'\xe7\xbe'
p55
I6
sS'\xe7\xbd'
p56
I32
sS'\xb5\xe4'
p57
I1
sS'\xe7\xba'
p58
I26
sS'\xe7\xb9'
p59
I1
sS'\xbe\xe8'
p60
I4
sS'\xbe\xe9'
p61
I19
sS'\xe5\xbc\xb9\xe7'
p62
I1
sS'\xb9\xe4\xba'
p63
I2
sS'\xbc\xe5\xbe'
p64
I1
sS'15'
p65
I2
sS'15CM'
p66
I1
sS'\xbd\xe5\xba'
p67
I1
sS'\xbe\xe4'
p68
I4
sS'\xbe\xe5'
p69
I9
sS'\xbe\xe6'
p70
I15
sS'\xbe\xe7'
p71
I3
sS'1A'
p72
I1
sS'\xe3'
I286
sS'OK'
p73
I1
sS'58'
p74
I1
sS'\xe7'
I1195
sS'ctrip'
p75
I3
sS'\xef'
I1
sS'19'
p76
I3
sS'\xe6\xb3\xb3'
p77
I1
sS'25'
p78
I2
sS'\xe6\xbd'
p79
I2
sS'18'
p80
I1
sS'\xaa\xe5\xbc\xba'
p81
I1
sS'\xe4\xba\xba'
p82
I47
sS'\xe5\xbc\xba'
p83
I6
sS'\xbe\xe4\xbd\xb3'
p84
I1
sS'\xaa\xe4\xba\xba'
p85
I2
sS'\xbc\xe7\xbc'
p86
I1
sS'200'
p87
I1
sS'30PM'
p88
I1
sS'rmb'
p89
I1
sS'\xb9\xe7\xbe'
p90
I1
sS'398'
p91
I1
sS'\xe5\xb9\xb2\xe5\xb9\xb2\xe5'
p92
I1
sS'\xbd\xe8\xbd'
p93
I1
sS'08'
p94
I1
sS'3'
I11
sS'7'
I3
sS'\xb9\xe8\xbd'
p95
I1
sS'\xbc'
I38
sS'360'
p96
I2
sS'body'
p97
I1
sS'\xe9\xba'
p98
I3
sS'\xe9\xbd'
p99
I2
sS'\xe9\xbc'
p100
I2
sS'\xe9\xbe'
p101
I2
sS'\xb3\xe4\xbd'
p102
I3
sS'\xb3\xe4\xbe'
p103
I1
sS'\xe9\xb2'
p104
I2
sS'\xb3\xe4\xba'
p105
I4
sS'\xe9\xaa'
p106
I3
sS'241'
p107
I1
sS'240'
p108
I1
sS'100'
p109
I2
sS'\xb5\xe8\xbd'
p110
I1
sS'107'
p111
I1
sS'\xe5\xb9\xb3'
p112
I2
sS'\xba\xe4\xbc'
p113
I1
sS'\xba\xe4\xbe'
p114
I1
sS'\xba\xe4\xb9'
p115
I1
sS'\xe4'
I997
sS'\xe8\xaa'
p116
I1
sS'\xbc\xe7'
p117
I4
sS'3500'
p118
I1
sS'\xe8'
I1115
sS'270'
p119
I1
sS'30'
p120
I1
sS'\xbc\xe5\xb9\xb2'
p121
I1
sS'\xbc\xe5'
p122
I12
sS'com'
p123
I3
sS'\xe5\xb9\xb2'
p124
I1
sS'1000'
p125
I1
sS'\xb9\xe9'
p126
I3
sS'\xb9\xe8'
p127
I20
sS'338'
p128
I1
sS'Copyright'
p129
I3
sS'\xbc\xe5\xba'
p130
I1
sS'\xb9\xe5'
p131
I19
sS'\xb9\xe4'
p132
I5
sS'\xb9\xe7'
p133
I4
sS'\xb9\xe6'
p134
I13
sS'\xe4\xbe'
p135
I19
sS'\xe4\xbc'
p136
I51
sS'\xe4\xbd'
p137
I220
sS'\xe4\xba'
p138
I265
sS'\xe4\xb9'
p139
I158
sS'600'
p140
I1
sS'\xe4\xba\xba\xe8'
p141
I1
sS'\xe4\xba\xba\xe9'
p142
I2
sS'\xe8\xbe\xb9'
p143
I16
sS'\xe8\xbe\xbe'
p144
I8
sS'2'
I17
sS'\xb5'
I28
sS'\xe6\xb2\xb9\xe6\xbc'
p145
I1
sS'\xe6\xb9'
p146
I10
sS'\xb9'
I127
sS'\xe5\xb2'
p147
I3
sS'\xbd'
I184
sS'\xb5\xe8'
p148
I30
sS'1999'
p149
I3
sS'\xba\xe8'
p150
I14
sS'\xba\xe9'
p151
I4
sS'\xba\xe4'
p152
I2
sS'\xba\xe5'
p153
I29
sS'\xba\xe6'
p154
I16
sS'\xba\xe7'
p155
I26
sS'\xaa\xe8\xbe\xbe'
p156
I1
sS'N'
I1
sS'hk'
p157
I1
sS'8'
I3
sS'00PM'
p158
I1
sS'copy'
p159
I1
sS'Happyhour'
p160
I1
sS'97'
p161
I1
sS'17087105'
p162
I2
sS'11'
p163
I3
sS'10'
p164
I7
sS'12'
p165
I2
sS'\xe5'
I2770
sS'14'
p166
I3
sS'17'
p167
I1
sS'rights'
p168
I2
sS'\xe9'
I929
sS'\xba\xe9\xaa'
p169
I1
sS'00AM'
p170
I2
sS'\xba\xe4\xba'
p171
I1
sS'6'
I7
sS'n'
I1
sS'\xe7\xb2\xbe\xe7'
p172
I1
sS'\xb2\xe6'
p173
I1
sS'\xb2\xe7'
p174
I8
sS'taxi'
p175
I1
sS'\xbe\xe7\xbd'
p176
I2
sS'\xb2\xe8'
p177
I1
sS'\xb2\xe9'
p178
I3
sS'150'
p179
I1
sS'\xe6\xb2'
p180
I97
sS'\xe6\xb3'
p181
I22
sS'reserved'
p182
I1
sS'\xe6\xb5'
p183
I25
sS'\xe4\xba\xba\xe4'
p184
I1
sS'\xe4\xba\xba\xe5'
p185
I12
sS'\xe4\xba\xba\xe6'
p186
I3
sS'\xe4\xba\xba\xe7'
p187
I2
sS'\xe6\xbc'
p188
I5
sS'al'
p189
I1
sS'\xe6\xbe'
p190
I2
sS'\xaa\xe8'
p191
I13
sS'\xaa\xe9'
p192
I4
sS'reserv'
p193
I1
sS'\xaa\xe4'
p194
I2
sS'\xaa\xe5'
p195
I36
sS'\xaa\xe6'
p196
I14
sS'\xaa\xe7'
p197
I2
sS'check'
p198
I1
sS'\xe7\xb2'
p199
I3
sS'\xe7\xbc\xba'
p200
I1
sS'\xb2\xe5\xbe'
p201
I1
sS'\xaa'
I124
sS'-'
I6
sS'\xe5\xb9\xb2\xe6'
p202
I1
sS'40'
p203
I1
sS'1'
I19
sS'\xe5\xb9\xb3\xe6'
p204
I1
sS'\xb3\xe9'
p205
I4
sS'\xb2'
I9
sS'5'
I9
sS'KFC'
p206
I1
sS'LP'
p207
I2
sS'9'
I4
sS'2006'
p208
I1
sS'\xba'
I81
sS'\xb3\xe6'
p209
I3
sS'\xb3\xe5'
p210
I18
sS'\xbe'
I38
sS'\xe7\xbc\xba\xe7'
p211
I1
sS'\xe7\xbc\xba\xe6'
p212
I1
sS'\xe7\xbc'
p213
I1
sS'IP'
p214
I1
sS'\xe8\xbe\xb9\xe7'
p215
I1
sS'\xbc\xe4\xbd'
p216
I1
sS'\xb3\xe6\xb3'
p217
I1
sS'\xe5\xbd'
p218
I26
sS'\xe5\xbc'
p219
I41
sS'\xbc\xe4'
p220
I6
sS'\xe5\xbe'
p221
I176
sS'\xe5\xb9'
p222
I28
sS'\xe5\xba'
p223
I208
sS'\xe6\xb9\xbe'
p224
I2
sS'\xbc\xe8'
p225
I4
sS'\xbc\xe9'
p226
I3
sS'\xb9\xe4\xbe'
p227
I21
sS'\xe2'
I30
sS'in'
p228
I1
sS'\xe6'
I2369
sS'\xb3\xe4'
p229
I1
sS'\xaa\xe4\xbd'
p230
I4
sS'\xe5\xb9\xb2\xe5'
p231
I11
sS'\xbc\xe6'
p232
I1
sS'sasa'
p233
I1
sS'2007'
p234
I2
sS'2008'
p235
I9
sS'\xe5\xb9\xb2\xe8'
p236
I1
ssS'_mapping'
p237
(dp238
g18
I66
sg19
I171
sg20
I195
sg21
I204
sg22
I2
sg23
I19
sg24
I186
sg25
I239
sg26
I174
sg27
I188
sg28
I34
sg29
I51
sg30
I63
sg31
I115
sg32
I101
sg33
I136
sg142
I109
sg34
I62
sg35
I178
sg36
I123
sg37
I120
sg38
I119
sg39
I143
sg40
I47
sg41
I96
sg42
I94
sS'0'
I201
sS'\xb3'
I41
sg43
I18
sS'4'
I54
sg44
I117
sg45
I183
sg46
I79
sg47
I156
sg48
I173
sg49
I89
sg50
I124
sg51
I86
sg52
I212
sg53
I159
sS'D'
I172
sg54
I184
sg55
I60
sg56
I68
sg57
I211
sg58
I58
sg59
I133
sg60
I84
sg61
I43
sg62
I104
sg63
I102
sg64
I249
sg65
I140
sg66
I214
sg67
I103
sg68
I158
sg69
I27
sg70
I40
sg71
I108
sg72
I121
sS'\xe3'
I25
sg73
I236
sg74
I180
sS'\xe7'
I4
sg75
I193
sS'\xef'
I165
sg76
I107
sg77
I95
sg78
I154
sg79
I225
sg80
I250
sg81
I223
sg82
I73
sg83
I203
sg84
I130
sg85
I205
sg86
I179
sg87
I209
sg88
I144
sg89
I35
sg90
I110
sg91
I216
sg92
I138
sg93
I222
sg94
I218
sS'3'
I30
sS'7'
I153
sg95
I202
sS'\xbc'
I91
sg96
I157
sg97
I65
sg98
I132
sg99
I152
sg100
I238
sg101
I129
sg102
I185
sg103
I232
sg104
I150
sg105
I190
sg106
I181
sg107
I208
sg108
I169
sg109
I38
sg110
I106
sg111
I127
sg112
I210
sg113
I56
sg114
I113
sg115
I74
sS'\xe4'
I17
sg116
I242
sg117
I151
sg118
I118
sS'\xe8'
I3
sg119
I170
sg120
I219
sg121
I251
sg122
I92
sg123
I194
sg124
I75
sg125
I134
sg126
I21
sg127
I71
sg128
I230
sg129
I191
sg130
I116
sg131
I90
sg132
I99
sg133
I213
sg134
I76
sg135
I70
sg136
I52
sg137
I14
sg138
I7
sg139
I15
sg140
I217
sg141
I226
sg12
I0
sg143
I33
sg144
I67
sS'2'
I37
sS'\xb5'
I48
sg145
I227
sg146
I100
sS'\xb9'
I13
sg147
I112
sS'\xbd'
I10
sg148
I85
sg149
I192
sg150
I80
sg151
I50
sg152
I146
sg153
I24
sg154
I149
sg155
I77
sg156
I97
sS'N'
I206
sg157
I36
sS'8'
I161
sg158
I142
sg159
I105
sg160
I167
sg161
I39
sg162
I177
sg163
I128
sg164
I57
sg165
I46
sS'\xe5'
I8
sg166
I164
sg167
I168
sg168
I196
sS'\xe9'
I5
sg169
I243
sg170
I141
sg171
I234
sS'6'
I126
sS'n'
I221
sg172
I247
sg173
I187
sg174
I111
sg175
I248
sg176
I175
sg177
I228
sg178
I114
sg179
I166
sg180
I22
sg181
I155
sg182
I199
sg183
I32
sg184
I241
sg185
I82
sg186
I81
sg187
I23
sg188
I148
sg189
I207
sg190
I240
sg191
I9
sg192
I53
sg193
I197
sg194
I182
sg195
I42
sg196
I69
sg197
I135
sg198
I244
sg199
I215
sg200
I147
sg201
I231
sS'\xaa'
I29
sS'-'
I125
sg202
I237
sg203
I160
sS'1'
I31
sg204
I176
sg205
I88
sS'\xb2'
I83
sS'5'
I59
sg206
I131
sg207
I198
sS'9'
I122
sg208
I137
sS'\xba'
I20
sg209
I162
sg210
I55
sS'\xbe'
I28
sg211
I220
sg212
I145
sg213
I224
sg214
I246
sg215
I235
sg216
I139
sg217
I163
sg218
I12
sg219
I78
sg220
I87
sg221
I16
sg222
I45
sg223
I6
sg224
I61
sg225
I189
sg226
I49
sg227
I26
sS'\xe2'
I98
sg228
I245
sS'\xe6'
I1
sg229
I229
sg230
I93
sg231
I11
sg232
I200
sg233
I64
sg234
I44
sg235
I72
sg236
I233
ssS'_reverse_mapping'
p239
(lp240
g12
aS'\xe6'
ag22
aS'\xe8'
aS'\xe7'
aS'\xe9'
ag223
ag138
aS'\xe5'
ag191
aS'\xbd'
ag231
ag218
aS'\xb9'
ag137
ag139
ag221
aS'\xe4'
ag43
ag23
aS'\xba'
ag126
ag180
ag187
ag153
aS'\xe3'
ag227
ag69
aS'\xbe'
aS'\xaa'
aS'3'
aS'1'
ag183
ag143
ag28
ag89
ag157
aS'2'
ag109
ag161
ag70
aS'\xb3'
ag195
ag61
ag234
ag222
ag165
ag40
aS'\xb5'
ag226
ag151
ag29
ag136
ag192
aS'4'
ag210
ag113
ag164
ag58
aS'5'
ag55
ag224
ag34
ag30
ag233
ag97
ag18
ag144
ag56
ag196
ag135
ag127
ag235
ag82
ag115
ag124
ag134
ag155
ag219
ag46
ag150
ag186
ag185
aS'\xb2'
ag60
ag148
ag51
ag220
ag205
ag49
ag131
aS'\xbc'
ag122
ag230
ag42
ag77
ag41
ag156
aS'\xe2'
ag132
ag146
ag32
ag63
ag67
ag62
ag159
ag110
ag76
ag71
ag142
ag90
ag174
ag147
ag114
ag178
ag31
ag130
ag44
ag118
ag38
ag37
ag72
aS'9'
ag36
ag50
aS'-'
aS'6'
ag111
ag163
ag101
ag84
ag206
ag98
ag59
ag125
ag197
ag33
ag208
ag92
ag216
ag65
ag170
ag158
ag39
ag88
ag212
ag152
ag200
ag188
ag154
ag104
ag117
ag99
aS'7'
ag78
ag181
ag47
ag96
ag68
ag53
ag203
aS'8'
ag209
ag217
ag166
aS'\xef'
ag179
ag160
ag167
ag108
ag119
ag19
aS'D'
ag48
ag26
ag176
ag204
ag162
ag35
ag86
ag74
ag106
ag194
ag45
ag54
ag102
ag24
ag173
ag27
ag225
ag105
ag129
ag149
ag75
ag123
ag20
ag168
ag193
ag207
ag182
ag232
aS'0'
ag95
ag83
ag21
ag85
aS'N'
ag189
ag107
ag87
ag112
ag57
ag52
ag133
ag66
ag199
ag91
ag140
ag94
ag120
ag211
aS'n'
ag93
ag81
ag213
ag79
ag141
ag145
ag177
ag229
ag128
ag201
ag103
ag236
ag171
ag215
ag73
ag202
ag100
ag25
ag190
ag184
ag116
ag169
ag198
ag228
ag214
ag172
ag175
ag64
ag80
ag121
asbsS'max_document_length'
p241
I441
sS'_tokenizer'
p242
ctensorflow.contrib.learn.python.learn.preprocessing.text
tokenizer
p243
sS'min_frequency'
p244
I0
sb.